; Function Attrs: nounwind uwtable
define ptr @l_Lean_PersistentArray_findSomeRevMAux___at_Lean_Meta_findLocalDeclWithType_x3f___spec__4(ptr noundef %0, ptr noundef %1, ptr noundef %2, ptr noundef %3, ptr noundef %4, ptr noundef %5, ptr noundef %6) local_unnamed_addr #0 {
  %8 = ptrtoint ptr %1 to i64
  %9 = and i64 %8, 1
  %.not.i = icmp eq i64 %9, 0
  br i1 %.not.i, label %13, label %10

10:                                               ; preds = %7
  %11 = lshr i64 %8, 1
  %12 = trunc i64 %11 to i32
  br label %lean_obj_tag.exit

13:                                               ; preds = %7
  %14 = getelementptr i8, ptr %1, i64 4
  %.val.i = load i32, ptr %14, align 4
  %15 = lshr i32 %.val.i, 24
  br label %lean_obj_tag.exit

lean_obj_tag.exit:                                ; preds = %10, %13
  %.0.i = phi i32 [ %12, %10 ], [ %15, %13 ]
  %16 = icmp eq i32 %.0.i, 0
  %17 = getelementptr inbounds nuw i8, ptr %1, i64 8
  %18 = load ptr, ptr %17, align 8, !tbaa !11
  %19 = getelementptr i8, ptr %18, i64 8
  %.val24 = load i64, ptr %19, align 8, !tbaa !14
  %20 = shl i64 %.val24, 1
  %21 = or disjoint i64 %20, 1
  %22 = inttoptr i64 %21 to ptr
  br i1 %16, label %23, label %25

23:                                               ; preds = %lean_obj_tag.exit
  %24 = tail call ptr @l_Array_findSomeRevM_x3f_find___at_Lean_Meta_findLocalDeclWithType_x3f___spec__5(ptr noundef %0, ptr noundef %18, ptr noundef nonnull %22, ptr nonnull poison, ptr noundef %2, ptr noundef %3, ptr noundef %4, ptr noundef %5, ptr noundef %6)
  br label %27

25:                                               ; preds = %lean_obj_tag.exit
  %26 = tail call ptr @l_Array_findSomeRevM_x3f_find___at_Lean_Meta_findLocalDeclWithType_x3f___spec__6(ptr noundef %0, ptr noundef %18, ptr noundef nonnull %22, ptr nonnull poison, ptr noundef %2, ptr noundef %3, ptr noundef %4, ptr noundef %5, ptr noundef %6)
  br label %27

27:                                               ; preds = %25, %23
  %.0 = phi ptr [ %24, %23 ], [ %26, %25 ]
  ret ptr %.0
}